; Function Attrs: mustprogress nofree norecurse nosync nounwind willreturn memory(argmem: read) uwtable
define dso_local range(i32 0, 2) i32 @zslValueLteMax(double noundef %0, ptr noundef readonly captures(none) %1) local_unnamed_addr #7 {
  %3 = getelementptr inbounds nuw i8, ptr %1, i64 20
  %4 = load i32, ptr %3, align 4, !tbaa !44
  %.not = icmp eq i32 %4, 0
  %5 = getelementptr inbounds nuw i8, ptr %1, i64 8
  %6 = load double, ptr %5, align 8, !tbaa !45
  %7 = fcmp olt double %0, %6
  %8 = fcmp ole double %0, %6
  %.in = select i1 %.not, i1 %8, i1 %7
  %9 = zext i1 %.in to i32
  ret i32 %9
}